; Function Attrs: nounwind uwtable
define ptr @l_Lake_Toml_RBDict_insertSome___rarg(ptr noundef %0, ptr noundef %1, ptr noundef %2, ptr noundef %3) #0 {
  %5 = ptrtoint ptr %2 to i64
  %6 = and i64 %5, 1
  %.not.i19 = icmp eq i64 %6, 0
  br i1 %.not.i19, label %10, label %7

7:                                                ; preds = %4
  %8 = lshr i64 %5, 1
  %9 = trunc i64 %8 to i32
  br label %lean_obj_tag.exit

10:                                               ; preds = %4
  %11 = getelementptr i8, ptr %2, i64 4
  %.val.i = load i32, ptr %11, align 4
  %12 = lshr i32 %.val.i, 24
  br label %lean_obj_tag.exit

lean_obj_tag.exit:                                ; preds = %7, %10
  %.0.i = phi i32 [ %9, %7 ], [ %12, %10 ]
  %13 = icmp eq i32 %.0.i, 0
  br i1 %13, label %14, label %33

14:                                               ; preds = %lean_obj_tag.exit
  %15 = ptrtoint ptr %1 to i64
  %16 = and i64 %15, 1
  %.not23 = icmp eq i64 %16, 0
  br i1 %.not23, label %17, label %lean_dec.exit14

17:                                               ; preds = %14
  %18 = load i32, ptr %1, align 4, !tbaa !8
  %19 = icmp sgt i32 %18, 1
  br i1 %19, label %20, label %22, !prof !13

20:                                               ; preds = %17
  %21 = add nsw i32 %18, -1
  store i32 %21, ptr %1, align 4, !tbaa !8
  br label %lean_dec.exit14

22:                                               ; preds = %17
  %.not.i = icmp eq i32 %18, 0
  br i1 %.not.i, label %lean_dec.exit14, label %23

23:                                               ; preds = %22
  tail call void @lean_dec_ref_cold(ptr noundef nonnull %1) #5
  br label %lean_dec.exit14

lean_dec.exit14:                                  ; preds = %23, %22, %20, %14
  %24 = ptrtoint ptr %0 to i64
  %25 = and i64 %24, 1
  %.not24 = icmp eq i64 %25, 0
  br i1 %.not24, label %26, label %lean_dec.exit13

26:                                               ; preds = %lean_dec.exit14
  %27 = load i32, ptr %0, align 4, !tbaa !8
  %28 = icmp sgt i32 %27, 1
  br i1 %28, label %29, label %31, !prof !13

29:                                               ; preds = %26
  %30 = add nsw i32 %27, -1
  store i32 %30, ptr %0, align 4, !tbaa !8
  br label %lean_dec.exit13

31:                                               ; preds = %26
  %.not.i15 = icmp eq i32 %27, 0
  br i1 %.not.i15, label %lean_dec.exit13, label %32

32:                                               ; preds = %31
  tail call void @lean_dec_ref_cold(ptr noundef nonnull %0) #5
  br label %lean_dec.exit13

33:                                               ; preds = %lean_obj_tag.exit
  %34 = getelementptr inbounds nuw i8, ptr %2, i64 8
  %35 = load ptr, ptr %34, align 8, !tbaa !4
  %36 = ptrtoint ptr %35 to i64
  %37 = and i64 %36, 1
  %.not = icmp eq i64 %37, 0
  br i1 %.not, label %38, label %lean_inc.exit

38:                                               ; preds = %33
  %.val.i20 = load i32, ptr %35, align 4, !tbaa !8
  %39 = icmp sgt i32 %.val.i20, 0
  br i1 %39, label %40, label %42, !prof !13

40:                                               ; preds = %38
  %41 = add nuw i32 %.val.i20, 1
  store i32 %41, ptr %35, align 4, !tbaa !8
  br label %lean_inc.exit

42:                                               ; preds = %38
  %.not.i21 = icmp eq i32 %.val.i20, 0
  br i1 %.not.i21, label %lean_inc.exit, label %43

43:                                               ; preds = %42
  tail call void @lean_inc_ref_cold(ptr noundef nonnull %35) #5
  br label %lean_inc.exit

lean_inc.exit:                                    ; preds = %43, %42, %40, %33
  br i1 %.not.i19, label %44, label %lean_dec.exit

44:                                               ; preds = %lean_inc.exit
  %45 = load i32, ptr %2, align 4, !tbaa !8
  %46 = icmp sgt i32 %45, 1
  br i1 %46, label %47, label %49, !prof !13

47:                                               ; preds = %44
  %48 = add nsw i32 %45, -1
  store i32 %48, ptr %2, align 4, !tbaa !8
  br label %lean_dec.exit

49:                                               ; preds = %44
  %.not.i17 = icmp eq i32 %45, 0
  br i1 %.not.i17, label %lean_dec.exit, label %50

50:                                               ; preds = %49
  tail call void @lean_dec_ref_cold(ptr noundef nonnull %2) #5
  br label %lean_dec.exit

lean_dec.exit:                                    ; preds = %50, %49, %47, %lean_inc.exit
  %51 = tail call ptr @l_Lake_Toml_RBDict_insert___rarg(ptr noundef %0, ptr noundef %1, ptr noundef %35, ptr noundef %3)
  br label %lean_dec.exit13

lean_dec.exit13:                                  ; preds = %lean_dec.exit14, %29, %31, %32, %lean_dec.exit
  %.0 = phi ptr [ %51, %lean_dec.exit ], [ %3, %32 ], [ %3, %31 ], [ %3, %29 ], [ %3, %lean_dec.exit14 ]
  ret ptr %.0
}